0x000006AC  E92D5FFC  STMDB     R13!,{R2-R12,R14}
0x000006B0  E1A0A000  MOV       R10,R0
0x000006B4  E1A04001  MOV       R4,R1
0x000006B8  E1A05002  MOV       R5,R2
0x000006BC  E1A0B003  MOV       R11,R3
0x000006C0  E28D7030  ADD       R7,R13,#0x00000030
0x000006C4  E89700C0  LDMIA     R7,{R6-R7}

0x000006C8  E1A0300B  MOV       R3,R11
0x000006CC  E1A02005  MOV       R2,R5
0x000006D0  E1A01004  MOV       R1,R4
0x000006D4  E1A0000A  MOV       R0,R10

;tablero_buscar_color

0x00000B60  E92D41F0  STMDB     R13!,{R4-R8,R14}
0x00000B64  E1A06000  MOV       R6,R0
0x00000B68  E1A05001  MOV       R5,R1
0x00000B6C  E1A07002  MOV       R7,R2
0x00000B70  E1A08003  MOV       R8,R3

0x00000B74  E1A00005  MOV       R0,R5

;tablero_fila_valida 

0x00000C20  E1A01000  MOV       R1,R0

0x00000C24  E3510007  CMP       R1,#0x00000007
0x00000C28  AA000001  BGE       jump8
0x00000C2C  E3A00001  MOV       R0,#0x00000001
 
0x00000C30  E12FFF1E   B        jump9
0x00000C34  E3A00000  jump8 MOV       R0,#0x00000000

;fin_tablero_fila_valida



0x00000B7C  E3500000  jump9 CMP       R0,#0x00000000
0x00000B80  0A000003  BEQ       jump2
0x00000B84  E1A00007  MOV       R0,R7

;tablero_columna_valida
0x00000C04  E1A01000  MOV       R1,R0

0x00000C08  E3510007  CMP       R1,#0x00000007
0x00000C0C  AA000001  BGE       jump10
0x00000C10  E3A00001  MOV       R0,#0x00000001

0x00000C14  E12FFF1E  B jump11
0x00000C18  E3A00000  jump10 MOV       R0,#0x00000000
;fin_tablero_columna_valida


0x00000B8C  E3500000  jump11 CMP       R0,#0x00000000
0x00000B90  1A000002  BNE       jump3

0x00000B94  E3E00000  jump2 MVN       R0,#0x00000000
0x00000B98  E8BD41F0  jump17 LDMIA     R13!,{R4-R8,R14}

0x00000B9C  E12FFF1E  B        jump12

0x00000BA0  E3A04000  jump3 MOV       R4,#0x00000000

0x00000BA4  EA000000  B         jump4
0x00000BA8  E2844001  jump6 ADD       R4,R4,#0x00000001
0x00000BAC  E3540006  jump4 CMP       R4,#0x00000006
0x00000BB0  2A000004  BCS       jump5
0x00000BB4  E0850085  ADD       R0,R5,R5,LSL #1
0x00000BB8  E0860080  ADD       R0,R6,R0,LSL #1
0x00000BBC  E7D00004  LDRB      R0,[R0,R4]
0x00000BC0  E1500007  CMP       R0,R7
0x00000BC4  1AFFFFF7  BNE       jump6

0x00000BC8  E3540006  jump5 CMP       R4,#0x00000006
0x00000BCC  1A000001  BNE       jump6

0x00000BD0  E3E00000  MVN       R0,#0x00000000
0x00000BD4  EAFFFFEF  B         jump7

0x00000BD8  E0851085  jump16 ADD       R1,R5,R5,LSL #1
0x00000BDC  E286202A  ADD       R2,R6,#0x0000002A
0x00000BE0  E0821081  ADD       R1,R2,R1,LSL #1
0x00000BE4  E7D10004  LDRB      R0,[R1,R4]

0x00000BE8  E2001003  AND       R1,R0,#0x00000003
0x00000BEC  E1510008  CMP       R1,R8
0x00000BF0  1A000001  BNE       jump7

0x00000BF4  E3A00000  MOV       R0,#0x00000000
0x00000BF8  EAFFFFE6  B         jump17

0x00000BFC  E3E00000  jump7 MVN       R0,#0x00000000
0x00000C00  EAFFFFE4  B         jump17

;fin_tablero_buscar_color

0x000006DC  E3500000  jump12 CMP       R0,#0x00000000
0x000006E0  0A000002  BEQ       0x000006F0
 
0x000006E4  E3A00000  MOV       R0,jump20
0x000006E8  E8BD5FFC  jump1 LDMIA     R13!,{R2-R12,R14}

0x000006EC  E12FFF1E  BX        R14

0x000006F0  E0840006  jump20 ADD       R0,R4,R6
0x000006F4  E20080FF  AND       R8,R0,#0x000000FF

0x000006F8  E0850007  ADD       R0,R5,R7
0x000006FC  E20090FF  AND       R9,R0,#0x000000FF

0x00000700  E1A0300B  MOV       R3,R11
0x00000704  E1A02009  MOV       R2,R9
0x00000708  E1A01008  MOV       R1,R8
0x0000070C  E1A0000A  MOV       R0,R10
0x00000710  E88D00C0  STMIA     R13,{R6-R7}
0x00000714  EBFFFFE4  BL        conecta_K_buscar_alineamiento_c(0x000006AC)
0x00000718  E2800001  ADD       R0,R0,#0x00000001
0x0000071C  E20000FF  AND       R0,R0,#0x000000FF
0x00000720  EAFFFFF0  B         jump1






BUSCAR TABLERO COLOR
0x00000B60  E92D41F0  STMDB     R13!,{R4-R8,R14}
0x00000B64  E1A06000  MOV       R6,R0
0x00000B68  E1A05001  MOV       R5,R1
0x00000B6C  E1A07002  MOV       R7,R2
0x00000B70  E1A08003  MOV       R8,R3

0x00000B74  E1A00005  MOV       R0,R5

;tablero_fila_valida 

0x00000C20  E1A01000  MOV       R1,R0

0x00000C24  E3510007  CMP       R1,#0x00000007
0x00000C28  AA000001  BGE       jump8
0x00000C2C  E3A00001  MOV       R0,#0x00000001
 
0x00000C30  E12FFF1E   B        jump9
0x00000C34  E3A00000  jump8 MOV       R0,#0x00000000

;fin_tablero_fila_valida



jump9 0x00000B7C  E3500000  CMP       R0,#0x00000000
0x00000B80  0A000003  BEQ       jump2
0x00000B84  E1A00007  MOV       R0,R7

;tablero_columna_valida
0x00000C04  E1A01000  MOV       R1,R0

0x00000C08  E3510007  CMP       R1,#0x00000007
0x00000C0C  AA000001  BGE       jump10
0x00000C10  E3A00001  MOV       R0,#0x00000001

0x00000C14  E12FFF1E  B jump11
0x00000C18  E3A00000  jump10 MOV       R0,#0x00000000
;fin_tablero_columna_valida


jump11 0x00000B8C  E3500000  CMP       R0,#0x00000000
0x00000B90  1A000002  BNE       jump3

0x00000B94  E3E00000  jump2 MVN       R0,#0x00000000
0x00000B98  E8BD41F0  jump17 LDMIA     R13!,{R4-R8,R14}

0x00000B9C  E12FFF1E  B        jump12

0x00000BA0  E3A04000  jump3 MOV       R4,#0x00000000

0x00000BA4  EA000000  B         jump4
0x00000BA8  E2844001  jump6 ADD       R4,R4,#0x00000001
0x00000BAC  E3540006  jump4 CMP       R4,#0x00000006
0x00000BB0  2A000004  BCS       jump5
0x00000BB4  E0850085  ADD       R0,R5,R5,LSL #1
0x00000BB8  E0860080  ADD       R0,R6,R0,LSL #1
0x00000BBC  E7D00004  LDRB      R0,[R0,R4]
0x00000BC0  E1500007  CMP       R0,R7
0x00000BC4  1AFFFFF7  BNE       jump6

0x00000BC8  E3540006  jump5 CMP       R4,#0x00000006
0x00000BCC  1A000001  BNE       jump16

0x00000BD0  E3E00000  MVN       R0,#0x00000000
0x00000BD4  EAFFFFEF  B         jump7

0x00000BD8  E0851085  jump16 ADD       R1,R5,R5,LSL #1
0x00000BDC  E286202A  ADD       R2,R6,#0x0000002A
0x00000BE0  E0821081  ADD       R1,R2,R1,LSL #1
0x00000BE4  E7D10004  LDRB      R0,[R1,R4]

0x00000BE8  E2001003  AND       R1,R0,#0x00000003
0x00000BEC  E1510008  CMP       R1,R8
0x00000BF0  1A000001  BNE       jump7

0x00000BF4  E3A00000  MOV       R0,#0x00000000
0x00000BF8  EAFFFFE6  B         jump17

0x00000BFC  E3E00000  jump7 MVN       R0,#0x00000000
0x00000C00  EAFFFFE4  B         jump17





TABLERO FILA VALIDA

0x00000C20  E1A01000  MOV       R1,R0

0x00000C24  E3510007  CMP       R1,#0x00000007
0x00000C28  AA000001  BGE       jump8
0x00000C2C  E3A00001  MOV       R0,#0x00000001
 
0x00000C30  E12FFF1E  jump9 BX        R14
0x00000C34  E3A00000  jump8 MOV       R0,#0x00000000
0x00000C38  EAFFFFFC  B         jump9




TABLERO COLUMNA VALIDA
0x00000C04  E1A01000  MOV       R1,R0

0x00000C08  E3510007  CMP       R1,#0x00000007
0x00000C0C  AA000001  BGE       jump10
0x00000C10  E3A00001  MOV       R0,#0x00000001

0x00000C14  E12FFF1E  jump11 BX        R14
0x00000C18  E3A00000  jump10 MOV       R0,#0x00000000
0x00000C1C  EAFFFFFC  B         jump11
